target datalayout = "e-m:e-p270:32:32-p271:32:32-p272:64:64-i64:64-i128:128-f80:128-n8:16:32:64-S128"
target triple = "x86_64-pc-linux-gnu"

%"class.std::_Function_base" = type { %"union.std::_Any_data", ptr }
%"union.std::_Any_data" = type { %"union.std::_Nocopy_types" }
%"union.std::_Nocopy_types" = type { { i64, i64 } }
%"struct.std::__detail::_Hash_node_base" = type { ptr }
%"struct.std::__detail::_Prime_rehash_policy" = type { float, i64 }
%"struct.folly::detail::SingletonThreadLocalState::LocalCache" = type { ptr }
%"class.folly::test::ThreadTimestamps" = type { %"class.std::vector" }
%"class.std::vector" = type { %"struct.std::_Vector_base" }
%"struct.std::_Vector_base" = type { %"struct.std::_Vector_base<folly::test::DSchedTimestamp, std::allocator<folly::test::DSchedTimestamp>>::_Vector_impl" }
%"struct.std::_Vector_base<folly::test::DSchedTimestamp, std::allocator<folly::test::DSchedTimestamp>>::_Vector_impl" = type { %"struct.std::_Vector_base<folly::test::DSchedTimestamp, std::allocator<folly::test::DSchedTimestamp>>::_Vector_impl_data" }
%"struct.std::_Vector_base<folly::test::DSchedTimestamp, std::allocator<folly::test::DSchedTimestamp>>::_Vector_impl_data" = type { ptr, ptr, ptr }
%"struct.folly::test::DSchedThreadId" = type { i32 }
%"struct.folly::test::(anonymous namespace)::PerThreadState" = type { ptr, ptr, i8, %"struct.folly::test::DSchedThreadId", %"class.std::function.59" }
%"class.std::function.59" = type { %"class.std::_Function_base", ptr }
%"class.folly::test::DeterministicSchedule" = type { %"class.std::function.13", %"class.std::vector.16", %"class.std::unordered_set", %"class.std::unordered_map.40", %"class.std::unordered_map.40", %"class.std::vector.54", %"class.folly::test::ThreadTimestamps", i32, i64 }
%"class.std::function.13" = type { %"class.std::_Function_base", ptr }
%"class.std::vector.16" = type { %"struct.std::_Vector_base.17" }
%"struct.std::_Vector_base.17" = type { %"struct.std::_Vector_base<folly::test::Semaphore *, std::allocator<folly::test::Semaphore *>>::_Vector_impl" }
%"struct.std::_Vector_base<folly::test::Semaphore *, std::allocator<folly::test::Semaphore *>>::_Vector_impl" = type { %"struct.std::_Vector_base<folly::test::Semaphore *, std::allocator<folly::test::Semaphore *>>::_Vector_impl_data" }
%"struct.std::_Vector_base<folly::test::Semaphore *, std::allocator<folly::test::Semaphore *>>::_Vector_impl_data" = type { ptr, ptr, ptr }
%"class.std::unordered_set" = type { %"class.std::_Hashtable.21" }
%"class.std::_Hashtable.21" = type { ptr, i64, %"struct.std::__detail::_Hash_node_base", i64, %"struct.std::__detail::_Prime_rehash_policy", ptr }
%"class.std::unordered_map.40" = type { %"class.std::_Hashtable.41" }
%"class.std::_Hashtable.41" = type { ptr, i64, %"struct.std::__detail::_Hash_node_base", i64, %"struct.std::__detail::_Prime_rehash_policy", ptr }
%"class.std::vector.54" = type { %"struct.std::_Vector_base.55" }
%"struct.std::_Vector_base.55" = type { %"struct.std::_Vector_base<folly::test::ThreadInfo, std::allocator<folly::test::ThreadInfo>>::_Vector_impl" }
%"struct.std::_Vector_base<folly::test::ThreadInfo, std::allocator<folly::test::ThreadInfo>>::_Vector_impl" = type { %"struct.std::_Vector_base<folly::test::ThreadInfo, std::allocator<folly::test::ThreadInfo>>::_Vector_impl_data" }
%"struct.std::_Vector_base<folly::test::ThreadInfo, std::allocator<folly::test::ThreadInfo>>::_Vector_impl_data" = type { ptr, ptr, ptr }
%"struct.folly::SingletonThreadLocal<folly::test::(anonymous namespace)::PerThreadState>::ObjectWrapper" = type { %"struct.folly::test::(anonymous namespace)::PerThreadState" }
%"class.std::thread::id" = type { i64 }
%"class.std::thread" = type { %"class.std::thread::id" }

@_ZZN5folly20SingletonThreadLocalINS_4test12_GLOBAL__N_114PerThreadStateENS_6detail10DefaultTagENS4_11DefaultMakeIS3_EEvE3getEvE5cache = internal thread_local global %"struct.folly::detail::SingletonThreadLocalState::LocalCache" zeroinitializer, align 8

; Function Attrs: mustprogress nounwind uwtable
define linkonce_odr noundef zeroext i1 @_ZNKSt14_Function_base8_M_emptyEv(ptr noundef nonnull align 8 dereferenceable(24) %0) #1 comdat align 2 {
  %2 = alloca ptr, align 8
  store ptr %0, ptr %2, align 8, !tbaa !15
  %3 = load ptr, ptr %2, align 8
  %4 = getelementptr inbounds nuw %"class.std::_Function_base", ptr %3, i32 0, i32 1
  %5 = load ptr, ptr %4, align 8, !tbaa !18
  %6 = icmp ne ptr %5, null
  %7 = xor i1 %6, true
  ret i1 %7
}

; Function Attrs: mustprogress nounwind uwtable
define linkonce_odr noundef nonnull align 8 dereferenceable(8) ptr @_ZNSt6vectorIPN5folly4test9SemaphoreESaIS3_EEixEm(ptr noundef nonnull align 8 dereferenceable(24) %0, i64 noundef %1) #1 comdat align 2 {
  %3 = alloca ptr, align 8
  %4 = alloca i64, align 8
  store ptr %0, ptr %3, align 8, !tbaa !166
  store i64 %1, ptr %4, align 8, !tbaa !83
  %5 = load ptr, ptr %3, align 8
  %6 = getelementptr inbounds nuw %"struct.std::_Vector_base.17", ptr %5, i32 0, i32 0
  %7 = getelementptr inbounds nuw %"struct.std::_Vector_base<folly::test::Semaphore *, std::allocator<folly::test::Semaphore *>>::_Vector_impl_data", ptr %6, i32 0, i32 0
  %8 = load ptr, ptr %7, align 8, !tbaa !193
  %9 = load i64, ptr %4, align 8, !tbaa !83
  %10 = getelementptr inbounds nuw ptr, ptr %8, i64 %9
  ret ptr %10
}

; Function Attrs: mustprogress uwtable
define linkonce_odr noundef i64 @_ZNKSt8functionIFmmEEclEm(ptr noundef nonnull align 8 dereferenceable(32) %0, i64 noundef %1) #6 comdat align 2 {
  %3 = alloca ptr, align 8
  %4 = alloca i64, align 8
  store ptr %0, ptr %3, align 8, !tbaa !139
  store i64 %1, ptr %4, align 8, !tbaa !83
  %5 = load ptr, ptr %3, align 8
  %6 = call noundef zeroext i1 @_ZNKSt14_Function_base8_M_emptyEv(ptr noundef nonnull align 8 dereferenceable(24) %5)
  br i1 %6, label %7, label %8

7:                                                ; preds = %2
  call void @_ZSt25__throw_bad_function_callv() #31
  unreachable

8:                                                ; preds = %2
  %9 = getelementptr inbounds nuw %"class.std::function.13", ptr %5, i32 0, i32 1
  %10 = load ptr, ptr %9, align 8, !tbaa !164
  %11 = getelementptr inbounds nuw %"class.std::_Function_base", ptr %5, i32 0, i32 0
  %12 = call noundef i64 %10(ptr noundef nonnull align 8 dereferenceable(16) %11, ptr noundef nonnull align 8 dereferenceable(8) %4)
  ret i64 %12
}

; Function Attrs: mustprogress nounwind uwtable
define linkonce_odr noundef i64 @_ZNKSt6vectorIPN5folly4test9SemaphoreESaIS3_EE4sizeEv(ptr noundef nonnull align 8 dereferenceable(24) %0) #1 comdat align 2 {
  %2 = alloca ptr, align 8
  store ptr %0, ptr %2, align 8, !tbaa !166
  %3 = load ptr, ptr %2, align 8
  %4 = getelementptr inbounds nuw %"struct.std::_Vector_base.17", ptr %3, i32 0, i32 0
  %5 = getelementptr inbounds nuw %"struct.std::_Vector_base<folly::test::Semaphore *, std::allocator<folly::test::Semaphore *>>::_Vector_impl_data", ptr %4, i32 0, i32 1
  %6 = load ptr, ptr %5, align 8, !tbaa !186
  %7 = getelementptr inbounds nuw %"struct.std::_Vector_base.17", ptr %3, i32 0, i32 0
  %8 = getelementptr inbounds nuw %"struct.std::_Vector_base<folly::test::Semaphore *, std::allocator<folly::test::Semaphore *>>::_Vector_impl_data", ptr %7, i32 0, i32 0
  %9 = load ptr, ptr %8, align 8, !tbaa !193
  %10 = ptrtoint ptr %6 to i64
  %11 = ptrtoint ptr %9 to i64
  %12 = sub i64 %10, %11
  %13 = sdiv exact i64 %12, 8
  ret i64 %13
}

; Function Attrs: mustprogress uwtable
define linkonce_odr void @_ZN5folly4test9Semaphore4waitEv(ptr noundef nonnull align 8 dereferenceable(112) %0) #6 comdat align 2 {
  %2 = alloca ptr, align 8
  store ptr %0, ptr %2, align 8, !tbaa !176
  %3 = load ptr, ptr %2, align 8
  call void @_ZN5folly4test9Semaphore4waitIZNS1_4waitEvEUlvE_ZNS1_4waitEvEUlvE0_EEvT_T0_(ptr noundef nonnull align 8 dereferenceable(112) %3)
  ret void
}

; Function Attrs: mustprogress uwtable
define void @_ZN5folly4test21DeterministicSchedule17afterSharedAccessEv() #6 align 2 {
  %1 = alloca ptr, align 8
  %2 = alloca ptr, align 8
  %3 = alloca i32, align 4
  call void @llvm.lifetime.start.p0(i64 8, ptr %1) #2
  %4 = call noundef nonnull align 8 dereferenceable(56) ptr @_ZN5folly20SingletonThreadLocalINS_4test12_GLOBAL__N_114PerThreadStateENS_6detail10DefaultTagENS4_11DefaultMakeIS3_EEvE3getEv()
  store ptr %4, ptr %1, align 8, !tbaa !130
  call void @llvm.lifetime.start.p0(i64 8, ptr %2) #2
  %5 = load ptr, ptr %1, align 8, !tbaa !130
  %6 = getelementptr inbounds nuw %"struct.folly::test::(anonymous namespace)::PerThreadState", ptr %5, i32 0, i32 1
  %7 = load ptr, ptr %6, align 8, !tbaa !132
  store ptr %7, ptr %2, align 8, !tbaa !137
  %8 = load ptr, ptr %2, align 8, !tbaa !137
  %9 = icmp ne ptr %8, null
  br i1 %9, label %11, label %10

10:                                               ; preds = %0
  store i32 1, ptr %3, align 4
  br label %22

11:                                               ; preds = %0
  %12 = load ptr, ptr %2, align 8, !tbaa !137
  %13 = getelementptr inbounds nuw %"class.folly::test::DeterministicSchedule", ptr %12, i32 0, i32 1
  %14 = load ptr, ptr %2, align 8, !tbaa !137
  %15 = getelementptr inbounds nuw %"class.folly::test::DeterministicSchedule", ptr %14, i32 0, i32 0
  %16 = load ptr, ptr %2, align 8, !tbaa !137
  %17 = getelementptr inbounds nuw %"class.folly::test::DeterministicSchedule", ptr %16, i32 0, i32 1
  %18 = call noundef i64 @_ZNKSt6vectorIPN5folly4test9SemaphoreESaIS3_EE4sizeEv(ptr noundef nonnull align 8 dereferenceable(24) %17) #2
  %19 = call noundef i64 @_ZNKSt8functionIFmmEEclEm(ptr noundef nonnull align 8 dereferenceable(32) %15, i64 noundef %18)
  %20 = call noundef nonnull align 8 dereferenceable(8) ptr @_ZNSt6vectorIPN5folly4test9SemaphoreESaIS3_EEixEm(ptr noundef nonnull align 8 dereferenceable(24) %13, i64 noundef %19) #2
  %21 = load ptr, ptr %20, align 8, !tbaa !176
  call void @_ZN5folly4test9Semaphore4postEv(ptr noundef nonnull align 8 dereferenceable(112) %21)
  store i32 0, ptr %3, align 4
  br label %22

22:                                               ; preds = %11, %10
  call void @llvm.lifetime.end.p0(i64 8, ptr %2) #2
  call void @llvm.lifetime.end.p0(i64 8, ptr %1) #2
  %23 = load i32, ptr %3, align 4
  switch i32 %23, label %25 [
    i32 0, label %24
    i32 1, label %24
  ]

24:                                               ; preds = %22, %22
  ret void

25:                                               ; preds = %22
  unreachable
}

; Function Attrs: mustprogress uwtable
define linkonce_odr void @_ZN5folly4test9Semaphore4postEv(ptr noundef nonnull align 8 dereferenceable(112) %0) #6 comdat align 2 {
  %2 = alloca ptr, align 8
  store ptr %0, ptr %2, align 8, !tbaa !176
  %3 = load ptr, ptr %2, align 8
  call void @_ZN5folly4test9Semaphore4postIZNS1_4postEvEUlvE_EEvT_(ptr noundef nonnull align 8 dereferenceable(112) %3)
  ret void
}

; Function Attrs: mustprogress uwtable
define linkonce_odr noundef nonnull align 8 dereferenceable(8) ptr @_ZNSt13unordered_mapINSt6thread2idEPN5folly4test9SemaphoreESt4hashIS1_ESt8equal_toIS1_ESaISt4pairIKS1_S5_EEEixEOS1_(ptr noundef nonnull align 8 dereferenceable(56) %0, ptr noundef nonnull align 8 dereferenceable(8) %1) #6 comdat align 2 {
  %3 = alloca ptr, align 8
  %4 = alloca ptr, align 8
  store ptr %0, ptr %3, align 8, !tbaa !170
  store ptr %1, ptr %4, align 8, !tbaa !388
  %5 = load ptr, ptr %3, align 8
  %6 = getelementptr inbounds nuw %"class.std::unordered_map.40", ptr %5, i32 0, i32 0
  %7 = load ptr, ptr %4, align 8, !tbaa !388
  %8 = call noundef nonnull align 8 dereferenceable(8) ptr @_ZNSt8__detail9_Map_baseINSt6thread2idESt4pairIKS2_PN5folly4test9SemaphoreEESaIS9_ENS_10_Select1stESt8equal_toIS2_ESt4hashIS2_ENS_18_Mod_range_hashingENS_20_Default_ranged_hashENS_20_Prime_rehash_policyENS_17_Hashtable_traitsILb0ELb0ELb1EEELb1EEixEOS2_(ptr noundef nonnull align 1 dereferenceable(1) %6, ptr noundef nonnull align 8 dereferenceable(8) %7)
  ret ptr %8
}

; Function Attrs: mustprogress nounwind uwtable
define linkonce_odr i64 @_ZNKSt6thread6get_idEv(ptr noundef nonnull align 8 dereferenceable(8) %0) #1 comdat align 2 {
  %2 = alloca %"class.std::thread::id", align 8
  %3 = alloca ptr, align 8
  store ptr %0, ptr %3, align 8, !tbaa !995
  %4 = load ptr, ptr %3, align 8
  %5 = getelementptr inbounds nuw %"class.std::thread", ptr %4, i32 0, i32 0
  call void @llvm.memcpy.p0.p0.i64(ptr align 8 %2, ptr align 8 %5, i64 8, i1 false), !tbaa.struct !119
  %6 = getelementptr inbounds nuw %"class.std::thread::id", ptr %2, i32 0, i32 0
  %7 = load i64, ptr %6, align 8
  ret i64 %7
}

; Function Attrs: mustprogress uwtable
define void @_ZN5folly4test21DeterministicSchedule18beforeSharedAccessEv() #6 align 2 {
  %1 = alloca ptr, align 8
  call void @llvm.lifetime.start.p0(i64 8, ptr %1) #2
  %2 = call noundef nonnull align 8 dereferenceable(56) ptr @_ZN5folly20SingletonThreadLocalINS_4test12_GLOBAL__N_114PerThreadStateENS_6detail10DefaultTagENS4_11DefaultMakeIS3_EEvE3getEv()
  store ptr %2, ptr %1, align 8, !tbaa !130
  %3 = load ptr, ptr %1, align 8, !tbaa !130
  %4 = getelementptr inbounds nuw %"struct.folly::test::(anonymous namespace)::PerThreadState", ptr %3, i32 0, i32 0
  %5 = load ptr, ptr %4, align 8, !tbaa !163
  %6 = icmp ne ptr %5, null
  br i1 %6, label %7, label %11

7:                                                ; preds = %0
  %8 = load ptr, ptr %1, align 8, !tbaa !130
  %9 = getelementptr inbounds nuw %"struct.folly::test::(anonymous namespace)::PerThreadState", ptr %8, i32 0, i32 0
  %10 = load ptr, ptr %9, align 8, !tbaa !163
  call void @_ZN5folly4test9Semaphore4waitEv(ptr noundef nonnull align 8 dereferenceable(112) %10)
  br label %11

11:                                               ; preds = %7, %0
  call void @llvm.lifetime.end.p0(i64 8, ptr %1) #2
  ret void
}

; Function Attrs: alwaysinline mustprogress uwtable
define internal noundef nonnull align 8 dereferenceable(56) ptr @_ZN5folly20SingletonThreadLocalINS_4test12_GLOBAL__N_114PerThreadStateENS_6detail10DefaultTagENS4_11DefaultMakeIS3_EEvE3getEv() #14 align 2 {
  %1 = alloca ptr, align 8
  call void @llvm.lifetime.start.p0(i64 8, ptr %1) #2
  %2 = call align 8 ptr @llvm.threadlocal.address.p0(ptr align 8 @_ZZN5folly20SingletonThreadLocalINS_4test12_GLOBAL__N_114PerThreadStateENS_6detail10DefaultTagENS4_11DefaultMakeIS3_EEvE3getEvE5cache)
  %3 = getelementptr inbounds nuw %"struct.folly::detail::SingletonThreadLocalState::LocalCache", ptr %2, i32 0, i32 0
  %4 = load ptr, ptr %3, align 8, !tbaa !174
  store ptr %4, ptr %1, align 8, !tbaa !130
  %5 = load ptr, ptr %1, align 8, !tbaa !130
  %6 = icmp ne ptr %5, null
  %7 = xor i1 %6, true
  %8 = xor i1 %7, true
  %9 = zext i1 %8 to i64
  %10 = call i64 @llvm.expect.i64(i64 %9, i64 1)
  %11 = icmp ne i64 %10, 0
  br i1 %11, label %12, label %14

12:                                               ; preds = %0
  %13 = load ptr, ptr %1, align 8, !tbaa !130
  br label %18

14:                                               ; preds = %0
  %15 = call align 8 ptr @llvm.threadlocal.address.p0(ptr align 8 @_ZZN5folly20SingletonThreadLocalINS_4test12_GLOBAL__N_114PerThreadStateENS_6detail10DefaultTagENS4_11DefaultMakeIS3_EEvE3getEvE5cache)
  %16 = call noundef nonnull align 8 dereferenceable(168) ptr @_ZN5folly20SingletonThreadLocalINS_4test12_GLOBAL__N_114PerThreadStateENS_6detail10DefaultTagENS4_11DefaultMakeIS3_EEvE7getSlowERNS4_25SingletonThreadLocalState10LocalCacheE(ptr noundef nonnull align 8 dereferenceable(8) %15)
  %17 = getelementptr inbounds nuw %"struct.folly::SingletonThreadLocal<folly::test::(anonymous namespace)::PerThreadState>::ObjectWrapper", ptr %16, i32 0, i32 0
  br label %18

18:                                               ; preds = %14, %12
  %19 = phi ptr [ %13, %12 ], [ %17, %14 ]
  call void @llvm.lifetime.end.p0(i64 8, ptr %1) #2
  ret ptr %19
}

; Function Attrs: mustprogress uwtable
define void @_ZN5folly4test21DeterministicSchedule4joinERSt6thread(ptr noundef nonnull align 8 dereferenceable(8) %0) #6 align 2 {
  %2 = alloca ptr, align 8
  %3 = alloca ptr, align 8
  %4 = alloca ptr, align 8
  %5 = alloca %"class.std::thread::id", align 8
  store ptr %0, ptr %2, align 8, !tbaa !995
  call void @llvm.lifetime.start.p0(i64 8, ptr %3) #2
  %6 = call noundef nonnull align 8 dereferenceable(56) ptr @_ZN5folly20SingletonThreadLocalINS_4test12_GLOBAL__N_114PerThreadStateENS_6detail10DefaultTagENS4_11DefaultMakeIS3_EEvE3getEv()
  store ptr %6, ptr %3, align 8, !tbaa !130
  call void @llvm.lifetime.start.p0(i64 8, ptr %4) #2
  %7 = load ptr, ptr %3, align 8, !tbaa !130
  %8 = getelementptr inbounds nuw %"struct.folly::test::(anonymous namespace)::PerThreadState", ptr %7, i32 0, i32 1
  %9 = load ptr, ptr %8, align 8, !tbaa !132
  store ptr %9, ptr %4, align 8, !tbaa !137
  %10 = load ptr, ptr %4, align 8, !tbaa !137
  %11 = icmp ne ptr %10, null
  br i1 %11, label %12, label %15

12:                                               ; preds = %1
  %13 = load ptr, ptr %4, align 8, !tbaa !137
  %14 = load ptr, ptr %2, align 8, !tbaa !995
  call void @_ZN5folly4test21DeterministicSchedule23waitForBeforeThreadExitERSt6thread(ptr noundef nonnull align 8 dereferenceable(288) %13, ptr noundef nonnull align 8 dereferenceable(8) %14)
  br label %15

15:                                               ; preds = %12, %1
  call void @_ZN5folly4test21DeterministicSchedule19atomic_thread_fenceESt12memory_order(i32 noundef 5)
  br label %16

16:                                               ; preds = %15
  br label %17

17:                                               ; preds = %16
  br label %18

18:                                               ; preds = %17
  %19 = load ptr, ptr %4, align 8, !tbaa !137
  %20 = icmp ne ptr %19, null
  br i1 %20, label %21, label %29

21:                                               ; preds = %18
  call void @_ZN5folly4test21DeterministicSchedule18beforeSharedAccessEv()
  %22 = load ptr, ptr %4, align 8, !tbaa !137
  %23 = getelementptr inbounds nuw %"class.folly::test::DeterministicSchedule", ptr %22, i32 0, i32 4
  call void @llvm.lifetime.start.p0(i64 8, ptr %5) #2
  %24 = load ptr, ptr %2, align 8, !tbaa !995
  %25 = call i64 @_ZNKSt6thread6get_idEv(ptr noundef nonnull align 8 dereferenceable(8) %24) #2
  %26 = getelementptr inbounds nuw %"class.std::thread::id", ptr %5, i32 0, i32 0
  store i64 %25, ptr %26, align 8
  %27 = call noundef nonnull align 8 dereferenceable(8) ptr @_ZNSt13unordered_mapINSt6thread2idEPN5folly4test9SemaphoreESt4hashIS1_ESt8equal_toIS1_ESaISt4pairIKS1_S5_EEEixEOS1_(ptr noundef nonnull align 8 dereferenceable(56) %23, ptr noundef nonnull align 8 dereferenceable(8) %5)
  %28 = load ptr, ptr %27, align 8, !tbaa !176
  call void @_ZN5folly4test9Semaphore4postEv(ptr noundef nonnull align 8 dereferenceable(112) %28)
  call void @llvm.lifetime.end.p0(i64 8, ptr %5) #2
  br label %29

29:                                               ; preds = %21, %18
  %30 = load ptr, ptr %2, align 8, !tbaa !995
  call void @_ZNSt6thread4joinEv(ptr noundef nonnull align 8 dereferenceable(8) %30)
  %31 = load ptr, ptr %4, align 8, !tbaa !137
  %32 = icmp ne ptr %31, null
  br i1 %32, label %33, label %34

33:                                               ; preds = %29
  call void @_ZN5folly4test21DeterministicSchedule17afterSharedAccessEv()
  br label %34

34:                                               ; preds = %33, %29
  call void @llvm.lifetime.end.p0(i64 8, ptr %4) #2
  call void @llvm.lifetime.end.p0(i64 8, ptr %3) #2
  ret void
}