; Function Attrs: mustprogress uwtable
define void @_ZN5folly4test21DeterministicSchedule4joinERSt6thread(ptr noundef nonnull align 8 dereferenceable(8) %0) local_unnamed_addr #7 align 2 {
  %2 = alloca i64, align 8
  %3 = alloca %"class.std::thread::id", align 8
  %4 = tail call align 8 ptr @llvm.threadlocal.address.p0(ptr align 8 @_ZZN5folly20SingletonThreadLocalINS_4test12_GLOBAL__N_114PerThreadStateENS_6detail10DefaultTagENS4_11DefaultMakeIS3_EEvE3getEvE5cache)
  %5 = load ptr, ptr %4, align 8, !tbaa !43
  %.not.i = icmp eq ptr %5, null
  br i1 %.not.i, label %6, label %_ZN5folly20SingletonThreadLocalINS_4test12_GLOBAL__N_114PerThreadStateENS_6detail10DefaultTagENS4_11DefaultMakeIS3_EEvE3getEv.exit, !prof !45

6:                                                ; preds = %1
  %7 = tail call fastcc noundef nonnull align 8 dereferenceable(168) ptr @_ZN5folly20SingletonThreadLocalINS_4test12_GLOBAL__N_114PerThreadStateENS_6detail10DefaultTagENS4_11DefaultMakeIS3_EEvE7getSlowERNS4_25SingletonThreadLocalState10LocalCacheE(ptr noundef nonnull align 8 dereferenceable(8) %4)
  br label %_ZN5folly20SingletonThreadLocalINS_4test12_GLOBAL__N_114PerThreadStateENS_6detail10DefaultTagENS4_11DefaultMakeIS3_EEvE3getEv.exit

_ZN5folly20SingletonThreadLocalINS_4test12_GLOBAL__N_114PerThreadStateENS_6detail10DefaultTagENS4_11DefaultMakeIS3_EEvE3getEv.exit: ; preds = %1, %6
  %8 = phi ptr [ %7, %6 ], [ %5, %1 ]
  %9 = getelementptr inbounds nuw i8, ptr %8, i64 8
  %10 = load ptr, ptr %9, align 8, !tbaa !46
  %.not = icmp eq ptr %10, null
  br i1 %.not, label %.thread, label %11

11:                                               ; preds = %_ZN5folly20SingletonThreadLocalINS_4test12_GLOBAL__N_114PerThreadStateENS_6detail10DefaultTagENS4_11DefaultMakeIS3_EEvE3getEv.exit
  tail call void @_ZN5folly4test21DeterministicSchedule23waitForBeforeThreadExitERSt6thread(ptr nonnull align 8 poison, ptr noundef nonnull align 8 dereferenceable(8) %0)
  tail call void @_ZN5folly4test21DeterministicSchedule19atomic_thread_fenceESt12memory_order(i32 noundef 5)
  %12 = load ptr, ptr %4, align 8, !tbaa !43
  %.not.i.i = icmp eq ptr %12, null
  br i1 %.not.i.i, label %13, label %_ZN5folly20SingletonThreadLocalINS_4test12_GLOBAL__N_114PerThreadStateENS_6detail10DefaultTagENS4_11DefaultMakeIS3_EEvE3getEv.exit.i, !prof !45

13:                                               ; preds = %11
  %14 = tail call fastcc noundef nonnull align 8 dereferenceable(168) ptr @_ZN5folly20SingletonThreadLocalINS_4test12_GLOBAL__N_114PerThreadStateENS_6detail10DefaultTagENS4_11DefaultMakeIS3_EEvE7getSlowERNS4_25SingletonThreadLocalState10LocalCacheE(ptr noundef nonnull align 8 dereferenceable(8) %4)
  br label %_ZN5folly20SingletonThreadLocalINS_4test12_GLOBAL__N_114PerThreadStateENS_6detail10DefaultTagENS4_11DefaultMakeIS3_EEvE3getEv.exit.i

_ZN5folly20SingletonThreadLocalINS_4test12_GLOBAL__N_114PerThreadStateENS_6detail10DefaultTagENS4_11DefaultMakeIS3_EEvE3getEv.exit.i: ; preds = %13, %11
  %15 = phi ptr [ %14, %13 ], [ %12, %11 ]
  %16 = load ptr, ptr %15, align 8, !tbaa !96
  %.not.i11 = icmp eq ptr %16, null
  br i1 %.not.i11, label %18, label %17

17:                                               ; preds = %_ZN5folly20SingletonThreadLocalINS_4test12_GLOBAL__N_114PerThreadStateENS_6detail10DefaultTagENS4_11DefaultMakeIS3_EEvE3getEv.exit.i
  tail call void @_ZN5folly4test9Semaphore4waitIZNS1_4waitEvEUlvE_ZNS1_4waitEvEUlvE0_EEvT_T0_(ptr noundef nonnull align 8 dereferenceable(112) %16)
  br label %18

.thread:                                          ; preds = %_ZN5folly20SingletonThreadLocalINS_4test12_GLOBAL__N_114PerThreadStateENS_6detail10DefaultTagENS4_11DefaultMakeIS3_EEvE3getEv.exit
  tail call void @_ZN5folly4test21DeterministicSchedule19atomic_thread_fenceESt12memory_order(i32 noundef 5)
  tail call void @_ZNSt6thread4joinEv(ptr noundef nonnull align 8 dereferenceable(8) %0)
  br label %_ZN5folly4test21DeterministicSchedule17afterSharedAccessEv.exit

18:                                               ; preds = %_ZN5folly20SingletonThreadLocalINS_4test12_GLOBAL__N_114PerThreadStateENS_6detail10DefaultTagENS4_11DefaultMakeIS3_EEvE3getEv.exit.i, %17
  %19 = getelementptr inbounds nuw i8, ptr %10, i64 168
  call void @llvm.lifetime.start.p0(i64 8, ptr nonnull %3) #18
  %.sroa.0.0.copyload.i = load i64, ptr %0, align 8, !tbaa !31
  store i64 %.sroa.0.0.copyload.i, ptr %3, align 8
  %20 = call noundef nonnull align 8 dereferenceable(8) ptr @_ZNSt8__detail9_Map_baseINSt6thread2idESt4pairIKS2_PN5folly4test9SemaphoreEESaIS9_ENS_10_Select1stESt8equal_toIS2_ESt4hashIS2_ENS_18_Mod_range_hashingENS_20_Default_ranged_hashENS_20_Prime_rehash_policyENS_17_Hashtable_traitsILb0ELb0ELb1EEELb1EEixEOS2_(ptr noundef nonnull align 8 dereferenceable(56) %19, ptr noundef nonnull align 8 dereferenceable(8) %3)
  %21 = load ptr, ptr %20, align 8, !tbaa !99
  call void @_ZN5folly4test9Semaphore4postIZNS1_4postEvEUlvE_EEvT_(ptr noundef nonnull align 8 dereferenceable(112) %21)
  call void @llvm.lifetime.end.p0(i64 8, ptr nonnull %3) #18
  call void @_ZNSt6thread4joinEv(ptr noundef nonnull align 8 dereferenceable(8) %0)
  %22 = load ptr, ptr %4, align 8, !tbaa !43
  %.not.i.i12 = icmp eq ptr %22, null
  br i1 %.not.i.i12, label %23, label %_ZN5folly20SingletonThreadLocalINS_4test12_GLOBAL__N_114PerThreadStateENS_6detail10DefaultTagENS4_11DefaultMakeIS3_EEvE3getEv.exit.i13, !prof !45

23:                                               ; preds = %18
  %24 = call fastcc noundef nonnull align 8 dereferenceable(168) ptr @_ZN5folly20SingletonThreadLocalINS_4test12_GLOBAL__N_114PerThreadStateENS_6detail10DefaultTagENS4_11DefaultMakeIS3_EEvE7getSlowERNS4_25SingletonThreadLocalState10LocalCacheE(ptr noundef nonnull align 8 dereferenceable(8) %4)
  br label %_ZN5folly20SingletonThreadLocalINS_4test12_GLOBAL__N_114PerThreadStateENS_6detail10DefaultTagENS4_11DefaultMakeIS3_EEvE3getEv.exit.i13

_ZN5folly20SingletonThreadLocalINS_4test12_GLOBAL__N_114PerThreadStateENS_6detail10DefaultTagENS4_11DefaultMakeIS3_EEvE3getEv.exit.i13: ; preds = %23, %18
  %25 = phi ptr [ %24, %23 ], [ %22, %18 ]
  %26 = getelementptr inbounds nuw i8, ptr %25, i64 8
  %27 = load ptr, ptr %26, align 8, !tbaa !46
  %.not.i14 = icmp eq ptr %27, null
  br i1 %.not.i14, label %_ZN5folly4test21DeterministicSchedule17afterSharedAccessEv.exit, label %28

28:                                               ; preds = %_ZN5folly20SingletonThreadLocalINS_4test12_GLOBAL__N_114PerThreadStateENS_6detail10DefaultTagENS4_11DefaultMakeIS3_EEvE3getEv.exit.i13
  %29 = getelementptr inbounds nuw i8, ptr %27, i64 32
  %30 = getelementptr inbounds nuw i8, ptr %27, i64 40
  %31 = load ptr, ptr %30, align 8, !tbaa !97
  %32 = load ptr, ptr %29, align 8, !tbaa !100
  %33 = ptrtoint ptr %31 to i64
  %34 = ptrtoint ptr %32 to i64
  %35 = sub i64 %33, %34
  %36 = ashr exact i64 %35, 3
  call void @llvm.lifetime.start.p0(i64 8, ptr nonnull %2)
  store i64 %36, ptr %2, align 8, !tbaa !31
  %37 = getelementptr inbounds nuw i8, ptr %27, i64 16
  %38 = load ptr, ptr %37, align 8, !tbaa !63
  %.not.i.i.i = icmp eq ptr %38, null
  br i1 %.not.i.i.i, label %39, label %_ZNKSt8functionIFmmEEclEm.exit.i

39:                                               ; preds = %28
  call void @_ZSt25__throw_bad_function_callv() #38
  unreachable

_ZNKSt8functionIFmmEEclEm.exit.i:                 ; preds = %28
  %40 = getelementptr inbounds nuw i8, ptr %27, i64 24
  %41 = load ptr, ptr %40, align 8, !tbaa !61
  %42 = call noundef i64 %41(ptr noundef nonnull align 8 dereferenceable(32) %27, ptr noundef nonnull align 8 dereferenceable(8) %2)
  call void @llvm.lifetime.end.p0(i64 8, ptr nonnull %2)
  %43 = load ptr, ptr %29, align 8, !tbaa !100
  %44 = getelementptr inbounds nuw ptr, ptr %43, i64 %42
  %45 = load ptr, ptr %44, align 8, !tbaa !99
  call void @_ZN5folly4test9Semaphore4postIZNS1_4postEvEUlvE_EEvT_(ptr noundef nonnull align 8 dereferenceable(112) %45)
  br label %_ZN5folly4test21DeterministicSchedule17afterSharedAccessEv.exit

_ZN5folly4test21DeterministicSchedule17afterSharedAccessEv.exit: ; preds = %_ZNKSt8functionIFmmEEclEm.exit.i, %_ZN5folly20SingletonThreadLocalINS_4test12_GLOBAL__N_114PerThreadStateENS_6detail10DefaultTagENS4_11DefaultMakeIS3_EEvE3getEv.exit.i13, %.thread
  ret void
}